target datalayout = "e-m:e-p270:32:32-p271:32:32-p272:64:64-i64:64-i128:128-f80:128-n8:16:32:64-S128"
target triple = "x86_64-pc-linux-gnu"

%struct.TupleDescData = type { i32, i32, i32, i32, ptr, [0 x %struct.CompactAttribute] }
%struct.CompactAttribute = type { i32, i16, i8, i8, i8, i8, i8, i8, i8 }
%struct.RecordCacheArrayEntry = type { i64, ptr }
%struct.Session = type { ptr, ptr, ptr, ptr, ptr }
%struct.SharedTypmodTableEntry = type { i32, i64 }
%struct.SharedRecordTableKey = type { %union.anon, i8 }
%union.anon = type { ptr }
%struct.SharedRecordTableEntry = type { %struct.SharedRecordTableKey }
%struct.SharedRecordTypmodRegistry = type { i64, i64, %struct.pg_atomic_uint32 }
%struct.pg_atomic_uint32 = type { i32 }

@.str.3 = private unnamed_addr constant [11 x i8] c"typcache.c\00", align 1
@NextRecordTypmod = internal global i32 0, align 4
@RecordCacheArray = internal global ptr null, align 8
@TopMemoryContext = external global ptr, align 8
@.str.8 = private unnamed_addr constant [45 x i8] c"cannot create duplicate shared record typmod\00", align 1
@__func__.SharedRecordTypmodRegistryInit = private unnamed_addr constant [31 x i8] c"SharedRecordTypmodRegistryInit\00", align 1
@CurrentSession = external global ptr, align 8
@CurrentMemoryContext = external global ptr, align 8
@srtr_record_table_params = internal constant { i64, i64, ptr, ptr, ptr, i32, [4 x i8] } { i64 16, i64 16, ptr @shared_record_table_compare, ptr @shared_record_table_hash, ptr @dshash_memcpy, i32 71, [4 x i8] zeroinitializer }, align 8
@srtr_typmod_table_params = internal constant { i64, i64, ptr, ptr, ptr, i32, [4 x i8] } { i64 4, i64 16, ptr @dshash_memcmp, ptr @dshash_memhash, ptr @dshash_memcpy, i32 72, [4 x i8] zeroinitializer }, align 8

; Function Attrs: inlinehint nounwind uwtable
define internal void @pg_atomic_init_u32_impl(ptr noundef %0, i32 noundef %1) #3 {
  %3 = alloca ptr, align 8
  %4 = alloca i32, align 4
  store ptr %0, ptr %3, align 8
  store i32 %1, ptr %4, align 4
  %5 = load i32, ptr %4, align 4
  %6 = load ptr, ptr %3, align 8
  %7 = getelementptr inbounds nuw %struct.pg_atomic_uint32, ptr %6, i32 0, i32 0
  store volatile i32 %5, ptr %7, align 4
  ret void
}

; Function Attrs: nounwind uwtable
define internal i64 @share_tupledesc(ptr noundef %0, ptr noundef %1, i32 noundef %2) #0 {
  %4 = alloca ptr, align 8
  %5 = alloca ptr, align 8
  %6 = alloca i32, align 4
  %7 = alloca i64, align 8
  %8 = alloca ptr, align 8
  store ptr %0, ptr %4, align 8
  store ptr %1, ptr %5, align 8
  store i32 %2, ptr %6, align 4
  call void @llvm.lifetime.start.p0(i64 8, ptr %7) #11
  call void @llvm.lifetime.start.p0(i64 8, ptr %8) #11
  %9 = load ptr, ptr %4, align 8
  %10 = load ptr, ptr %5, align 8
  %11 = getelementptr inbounds nuw %struct.TupleDescData, ptr %10, i32 0, i32 0
  %12 = load i32, ptr %11, align 8
  %13 = sext i32 %12 to i64
  %14 = mul i64 %13, 16
  %15 = add i64 24, %14
  %16 = load ptr, ptr %5, align 8
  %17 = getelementptr inbounds nuw %struct.TupleDescData, ptr %16, i32 0, i32 0
  %18 = load i32, ptr %17, align 8
  %19 = sext i32 %18 to i64
  %20 = mul i64 %19, 100
  %21 = add i64 %15, %20
  %22 = call i64 @dsa_allocate_extended(ptr noundef %9, i64 noundef %21, i32 noundef 0)
  store i64 %22, ptr %7, align 8
  %23 = load ptr, ptr %4, align 8
  %24 = load i64, ptr %7, align 8
  %25 = call ptr @dsa_get_address(ptr noundef %23, i64 noundef %24)
  store ptr %25, ptr %8, align 8
  %26 = load ptr, ptr %8, align 8
  %27 = load ptr, ptr %5, align 8
  call void @TupleDescCopy(ptr noundef %26, ptr noundef %27)
  %28 = load i32, ptr %6, align 4
  %29 = load ptr, ptr %8, align 8
  %30 = getelementptr inbounds nuw %struct.TupleDescData, ptr %29, i32 0, i32 2
  store i32 %28, ptr %30, align 8
  %31 = load i64, ptr %7, align 8
  call void @llvm.lifetime.end.p0(i64 8, ptr %8) #11
  call void @llvm.lifetime.end.p0(i64 8, ptr %7) #11
  ret i64 %31
}

; Function Attrs: inlinehint nounwind uwtable
define internal void @pg_atomic_init_u32(ptr noundef %0, i32 noundef %1) #3 {
  %3 = alloca ptr, align 8
  %4 = alloca i32, align 4
  store ptr %0, ptr %3, align 8
  store i32 %1, ptr %4, align 4
  %5 = load ptr, ptr %3, align 8
  %6 = load i32, ptr %4, align 4
  call void @pg_atomic_init_u32_impl(ptr noundef %5, i32 noundef %6)
  ret void
}

; Function Attrs: inlinehint nounwind uwtable
define internal ptr @MemoryContextSwitchTo(ptr noundef %0) #3 {
  %2 = alloca ptr, align 8
  %3 = alloca ptr, align 8
  store ptr %0, ptr %2, align 8
  call void @llvm.lifetime.start.p0(i64 8, ptr %3) #11
  %4 = load ptr, ptr @CurrentMemoryContext, align 8
  store ptr %4, ptr %3, align 8
  %5 = load ptr, ptr %2, align 8
  store ptr %5, ptr @CurrentMemoryContext, align 8
  %6 = load ptr, ptr %3, align 8
  call void @llvm.lifetime.end.p0(i64 8, ptr %3) #11
  ret ptr %6
}

; Function Attrs: nounwind uwtable
define dso_local void @SharedRecordTypmodRegistryInit(ptr noundef %0, ptr noundef %1, ptr noundef %2) #0 {
  %4 = alloca ptr, align 8
  %5 = alloca ptr, align 8
  %6 = alloca ptr, align 8
  %7 = alloca ptr, align 8
  %8 = alloca ptr, align 8
  %9 = alloca ptr, align 8
  %10 = alloca i32, align 4
  %11 = alloca ptr, align 8
  %12 = alloca ptr, align 8
  %13 = alloca %struct.SharedRecordTableKey, align 8
  %14 = alloca i64, align 8
  %15 = alloca ptr, align 8
  %16 = alloca i8, align 1
  %17 = alloca i32, align 4
  store ptr %0, ptr %4, align 8
  store ptr %1, ptr %5, align 8
  store ptr %2, ptr %6, align 8
  call void @llvm.lifetime.start.p0(i64 8, ptr %7) #11
  call void @llvm.lifetime.start.p0(i64 8, ptr %8) #11
  call void @llvm.lifetime.start.p0(i64 8, ptr %9) #11
  call void @llvm.lifetime.start.p0(i64 4, ptr %10) #11
  %18 = load ptr, ptr @TopMemoryContext, align 8
  %19 = call ptr @MemoryContextSwitchTo(ptr noundef %18)
  store ptr %19, ptr %7, align 8
  %20 = load ptr, ptr %6, align 8
  %21 = load ptr, ptr %6, align 8
  %22 = call ptr @dshash_create(ptr noundef %20, ptr noundef @srtr_record_table_params, ptr noundef %21)
  store ptr %22, ptr %8, align 8
  %23 = load ptr, ptr %6, align 8
  %24 = call ptr @dshash_create(ptr noundef %23, ptr noundef @srtr_typmod_table_params, ptr noundef null)
  store ptr %24, ptr %9, align 8
  %25 = load ptr, ptr %7, align 8
  %26 = call ptr @MemoryContextSwitchTo(ptr noundef %25)
  %27 = load ptr, ptr %8, align 8
  %28 = call i64 @dshash_get_hash_table_handle(ptr noundef %27)
  %29 = load ptr, ptr %4, align 8
  %30 = getelementptr inbounds nuw %struct.SharedRecordTypmodRegistry, ptr %29, i32 0, i32 0
  store i64 %28, ptr %30, align 8
  %31 = load ptr, ptr %9, align 8
  %32 = call i64 @dshash_get_hash_table_handle(ptr noundef %31)
  %33 = load ptr, ptr %4, align 8
  %34 = getelementptr inbounds nuw %struct.SharedRecordTypmodRegistry, ptr %33, i32 0, i32 1
  store i64 %32, ptr %34, align 8
  %35 = load ptr, ptr %4, align 8
  %36 = getelementptr inbounds nuw %struct.SharedRecordTypmodRegistry, ptr %35, i32 0, i32 2
  %37 = load i32, ptr @NextRecordTypmod, align 4
  call void @pg_atomic_init_u32(ptr noundef %36, i32 noundef %37)
  store i32 0, ptr %10, align 4
  br label %38

38:                                               ; preds = %106, %3
  %39 = load i32, ptr %10, align 4
  %40 = load i32, ptr @NextRecordTypmod, align 4
  %41 = icmp slt i32 %39, %40
  br i1 %41, label %42, label %109

42:                                               ; preds = %38
  call void @llvm.lifetime.start.p0(i64 8, ptr %11) #11
  call void @llvm.lifetime.start.p0(i64 8, ptr %12) #11
  call void @llvm.lifetime.start.p0(i64 16, ptr %13) #11
  call void @llvm.lifetime.start.p0(i64 8, ptr %14) #11
  call void @llvm.lifetime.start.p0(i64 8, ptr %15) #11
  call void @llvm.lifetime.start.p0(i64 1, ptr %16) #11
  %43 = load ptr, ptr @RecordCacheArray, align 8
  %44 = load i32, ptr %10, align 4
  %45 = sext i32 %44 to i64
  %46 = getelementptr inbounds %struct.RecordCacheArrayEntry, ptr %43, i64 %45
  %47 = getelementptr inbounds nuw %struct.RecordCacheArrayEntry, ptr %46, i32 0, i32 1
  %48 = load ptr, ptr %47, align 8
  store ptr %48, ptr %15, align 8
  %49 = load ptr, ptr %15, align 8
  %50 = icmp eq ptr %49, null
  br i1 %50, label %51, label %52

51:                                               ; preds = %42
  store i32 4, ptr %17, align 4
  br label %103

52:                                               ; preds = %42
  %53 = load ptr, ptr %6, align 8
  %54 = load ptr, ptr %15, align 8
  %55 = load i32, ptr %10, align 4
  %56 = call i64 @share_tupledesc(ptr noundef %53, ptr noundef %54, i32 noundef %55)
  store i64 %56, ptr %14, align 8
  %57 = load ptr, ptr %9, align 8
  %58 = load ptr, ptr %15, align 8
  %59 = getelementptr inbounds nuw %struct.TupleDescData, ptr %58, i32 0, i32 2
  %60 = call ptr @dshash_find_or_insert(ptr noundef %57, ptr noundef %59, ptr noundef %16)
  store ptr %60, ptr %11, align 8
  %61 = load i8, ptr %16, align 1, !range !4, !noundef !5
  %62 = trunc i8 %61 to i1
  br i1 %62, label %63, label %74

63:                                               ; preds = %52
  br label %64

64:                                               ; preds = %63
  br i1 true, label %65, label %67

65:                                               ; preds = %64
  %66 = call zeroext i1 @errstart_cold(i32 noundef 21, ptr noundef null) #12
  br i1 %66, label %69, label %71

67:                                               ; preds = %64
  %68 = call zeroext i1 @errstart(i32 noundef 21, ptr noundef null)
  br i1 %68, label %69, label %71

69:                                               ; preds = %67, %65
  %70 = call i32 (ptr, ...) @errmsg_internal(ptr noundef @.str.8)
  call void @errfinish(ptr noundef @.str.3, i32 noundef 2251, ptr noundef @__func__.SharedRecordTypmodRegistryInit)
  br label %71

71:                                               ; preds = %69, %67, %65
  unreachable

72:                                               ; No predecessors!
  br label %73

73:                                               ; preds = %72
  br label %74

74:                                               ; preds = %73, %52
  %75 = load ptr, ptr %15, align 8
  %76 = getelementptr inbounds nuw %struct.TupleDescData, ptr %75, i32 0, i32 2
  %77 = load i32, ptr %76, align 8
  %78 = load ptr, ptr %11, align 8
  %79 = getelementptr inbounds nuw %struct.SharedTypmodTableEntry, ptr %78, i32 0, i32 0
  store i32 %77, ptr %79, align 8
  %80 = load i64, ptr %14, align 8
  %81 = load ptr, ptr %11, align 8
  %82 = getelementptr inbounds nuw %struct.SharedTypmodTableEntry, ptr %81, i32 0, i32 1
  store i64 %80, ptr %82, align 8
  %83 = load ptr, ptr %9, align 8
  %84 = load ptr, ptr %11, align 8
  call void @dshash_release_lock(ptr noundef %83, ptr noundef %84)
  %85 = getelementptr inbounds nuw %struct.SharedRecordTableKey, ptr %13, i32 0, i32 1
  store i8 0, ptr %85, align 8
  %86 = load ptr, ptr %15, align 8
  %87 = getelementptr inbounds nuw %struct.SharedRecordTableKey, ptr %13, i32 0, i32 0
  store ptr %86, ptr %87, align 8
  %88 = load ptr, ptr %8, align 8
  %89 = call ptr @dshash_find_or_insert(ptr noundef %88, ptr noundef %13, ptr noundef %16)
  store ptr %89, ptr %12, align 8
  %90 = load i8, ptr %16, align 1, !range !4, !noundef !5
  %91 = trunc i8 %90 to i1
  br i1 %91, label %100, label %92

92:                                               ; preds = %74
  %93 = load ptr, ptr %12, align 8
  %94 = getelementptr inbounds nuw %struct.SharedRecordTableEntry, ptr %93, i32 0, i32 0
  %95 = getelementptr inbounds nuw %struct.SharedRecordTableKey, ptr %94, i32 0, i32 1
  store i8 1, ptr %95, align 8
  %96 = load i64, ptr %14, align 8
  %97 = load ptr, ptr %12, align 8
  %98 = getelementptr inbounds nuw %struct.SharedRecordTableEntry, ptr %97, i32 0, i32 0
  %99 = getelementptr inbounds nuw %struct.SharedRecordTableKey, ptr %98, i32 0, i32 0
  store i64 %96, ptr %99, align 8
  br label %100

100:                                              ; preds = %92, %74
  %101 = load ptr, ptr %8, align 8
  %102 = load ptr, ptr %12, align 8
  call void @dshash_release_lock(ptr noundef %101, ptr noundef %102)
  store i32 0, ptr %17, align 4
  br label %103

103:                                              ; preds = %100, %51
  call void @llvm.lifetime.end.p0(i64 1, ptr %16) #11
  call void @llvm.lifetime.end.p0(i64 8, ptr %15) #11
  call void @llvm.lifetime.end.p0(i64 8, ptr %14) #11
  call void @llvm.lifetime.end.p0(i64 16, ptr %13) #11
  call void @llvm.lifetime.end.p0(i64 8, ptr %12) #11
  call void @llvm.lifetime.end.p0(i64 8, ptr %11) #11
  %104 = load i32, ptr %17, align 4
  switch i32 %104, label %120 [
    i32 0, label %105
    i32 4, label %106
  ]

105:                                              ; preds = %103
  br label %106

106:                                              ; preds = %105, %103
  %107 = load i32, ptr %10, align 4
  %108 = add i32 %107, 1
  store i32 %108, ptr %10, align 4
  br label %38, !llvm.loop !16

109:                                              ; preds = %38
  %110 = load ptr, ptr %8, align 8
  %111 = load ptr, ptr @CurrentSession, align 8
  %112 = getelementptr inbounds nuw %struct.Session, ptr %111, i32 0, i32 3
  store ptr %110, ptr %112, align 8
  %113 = load ptr, ptr %9, align 8
  %114 = load ptr, ptr @CurrentSession, align 8
  %115 = getelementptr inbounds nuw %struct.Session, ptr %114, i32 0, i32 4
  store ptr %113, ptr %115, align 8
  %116 = load ptr, ptr %4, align 8
  %117 = load ptr, ptr @CurrentSession, align 8
  %118 = getelementptr inbounds nuw %struct.Session, ptr %117, i32 0, i32 2
  store ptr %116, ptr %118, align 8
  %119 = load ptr, ptr %5, align 8
  call void @on_dsm_detach(ptr noundef %119, ptr noundef @shared_record_typmod_registry_detach, i64 noundef 0)
  call void @llvm.lifetime.end.p0(i64 4, ptr %10) #11
  call void @llvm.lifetime.end.p0(i64 8, ptr %9) #11
  call void @llvm.lifetime.end.p0(i64 8, ptr %8) #11
  call void @llvm.lifetime.end.p0(i64 8, ptr %7) #11
  ret void

120:                                              ; preds = %103
  unreachable
}