; Function Attrs: nounwind uwtable
define dso_local void @SharedRecordTypmodRegistryInit(ptr noundef initializes((0, 16)) %0, ptr noundef %1, ptr noundef %2) local_unnamed_addr #0 {
  %4 = alloca %struct.SharedRecordTableKey, align 8
  %5 = alloca i8, align 1
  %6 = load ptr, ptr @TopMemoryContext, align 8
  %7 = load ptr, ptr @CurrentMemoryContext, align 8
  store ptr %6, ptr @CurrentMemoryContext, align 8
  %8 = tail call ptr @dshash_create(ptr noundef %2, ptr noundef nonnull @srtr_record_table_params, ptr noundef %2) #16
  %9 = tail call ptr @dshash_create(ptr noundef %2, ptr noundef nonnull @srtr_typmod_table_params, ptr noundef null) #16
  store ptr %7, ptr @CurrentMemoryContext, align 8
  %10 = tail call i64 @dshash_get_hash_table_handle(ptr noundef %8) #16
  store i64 %10, ptr %0, align 8
  %11 = tail call i64 @dshash_get_hash_table_handle(ptr noundef %9) #16
  %12 = getelementptr inbounds nuw i8, ptr %0, i64 8
  store i64 %11, ptr %12, align 8
  %13 = getelementptr inbounds nuw i8, ptr %0, i64 16
  %14 = load i32, ptr @NextRecordTypmod, align 4
  store volatile i32 %14, ptr %13, align 4
  %15 = icmp sgt i32 %14, 0
  br i1 %15, label %.lr.ph, label %._crit_edge

.lr.ph:                                           ; preds = %3
  %16 = getelementptr inbounds nuw i8, ptr %4, i64 8
  %.pre37 = load ptr, ptr @RecordCacheArray, align 8
  br label %17

17:                                               ; preds = %.lr.ph, %47
  %18 = phi i32 [ %14, %.lr.ph ], [ %48, %47 ]
  %19 = phi ptr [ %.pre37, %.lr.ph ], [ %49, %47 ]
  %indvars.iv = phi i64 [ 0, %.lr.ph ], [ %indvars.iv.next, %47 ]
  call void @llvm.lifetime.start.p0(i64 16, ptr nonnull %4) #16
  call void @llvm.lifetime.start.p0(i64 1, ptr nonnull %5) #16
  %20 = getelementptr inbounds nuw %struct.RecordCacheArrayEntry, ptr %19, i64 %indvars.iv, i32 1
  %21 = load ptr, ptr %20, align 8
  %22 = icmp eq ptr %21, null
  br i1 %22, label %47, label %23

23:                                               ; preds = %17
  %24 = load i32, ptr %21, align 8
  %25 = sext i32 %24 to i64
  %reass.mul.i = mul nsw i64 %25, 116
  %26 = add nsw i64 %reass.mul.i, 24
  %27 = call i64 @dsa_allocate_extended(ptr noundef %2, i64 noundef %26, i32 noundef 0) #16
  %28 = call ptr @dsa_get_address(ptr noundef %2, i64 noundef %27) #16
  call void @TupleDescCopy(ptr noundef %28, ptr noundef nonnull %21) #16
  %29 = getelementptr inbounds nuw i8, ptr %28, i64 8
  %30 = trunc nuw nsw i64 %indvars.iv to i32
  store i32 %30, ptr %29, align 8
  %31 = getelementptr inbounds nuw i8, ptr %21, i64 8
  %32 = call ptr @dshash_find_or_insert(ptr noundef %9, ptr noundef nonnull %31, ptr noundef nonnull %5) #16
  %33 = load i8, ptr %5, align 1, !range !4, !noundef !5
  %34 = trunc nuw i8 %33 to i1
  br i1 %34, label %35, label %38

35:                                               ; preds = %23
  %36 = call zeroext i1 @errstart_cold(i32 noundef 21, ptr noundef null) #17
  call void @llvm.assume(i1 %36)
  %37 = call i32 (ptr, ...) @errmsg_internal(ptr noundef nonnull @.str.8) #16
  call void @errfinish(ptr noundef nonnull @.str.3, i32 noundef 2251, ptr noundef nonnull @__func__.SharedRecordTypmodRegistryInit) #16
  unreachable

38:                                               ; preds = %23
  %39 = load i32, ptr %31, align 8
  store i32 %39, ptr %32, align 8
  %40 = getelementptr inbounds nuw i8, ptr %32, i64 8
  store i64 %27, ptr %40, align 8
  call void @dshash_release_lock(ptr noundef %9, ptr noundef nonnull %32) #16
  store i8 0, ptr %16, align 8
  store ptr %21, ptr %4, align 8
  %41 = call ptr @dshash_find_or_insert(ptr noundef %8, ptr noundef nonnull %4, ptr noundef nonnull %5) #16
  %42 = load i8, ptr %5, align 1, !range !4, !noundef !5
  %43 = trunc nuw i8 %42 to i1
  br i1 %43, label %46, label %44

44:                                               ; preds = %38
  %45 = getelementptr inbounds nuw i8, ptr %41, i64 8
  store i8 1, ptr %45, align 8
  store i64 %27, ptr %41, align 8
  br label %46

46:                                               ; preds = %44, %38
  call void @dshash_release_lock(ptr noundef %8, ptr noundef %41) #16
  %.pre = load ptr, ptr @RecordCacheArray, align 8
  %.pre38 = load i32, ptr @NextRecordTypmod, align 4
  br label %47

47:                                               ; preds = %17, %46
  %48 = phi i32 [ %18, %17 ], [ %.pre38, %46 ]
  %49 = phi ptr [ %19, %17 ], [ %.pre, %46 ]
  call void @llvm.lifetime.end.p0(i64 1, ptr nonnull %5) #16
  call void @llvm.lifetime.end.p0(i64 16, ptr nonnull %4) #16
  %indvars.iv.next = add nuw nsw i64 %indvars.iv, 1
  %50 = sext i32 %48 to i64
  %51 = icmp slt i64 %indvars.iv.next, %50
  br i1 %51, label %17, label %._crit_edge, !llvm.loop !15

._crit_edge:                                      ; preds = %47, %3
  %52 = load ptr, ptr @CurrentSession, align 8
  %53 = getelementptr inbounds nuw i8, ptr %52, i64 24
  store ptr %8, ptr %53, align 8
  %54 = getelementptr inbounds nuw i8, ptr %52, i64 32
  store ptr %9, ptr %54, align 8
  %55 = getelementptr inbounds nuw i8, ptr %52, i64 16
  store ptr %0, ptr %55, align 8
  call void @on_dsm_detach(ptr noundef %1, ptr noundef nonnull @shared_record_typmod_registry_detach, i64 noundef 0) #16
  ret void
}